target datalayout = "e-m:e-p270:32:32-p271:32:32-p272:64:64-i64:64-i128:128-f80:128-n8:16:32:64-S128"
target triple = "x86_64-pc-linux-gnu"

%struct.pmix_list_t = type { %struct.pmix_object_t, %struct.pmix_list_item_t, i64 }
%struct.pmix_object_t = type { %union.pthread_mutex_t, ptr, i32, %struct.pmix_tma }
%union.pthread_mutex_t = type { %struct.__pthread_mutex_s }
%struct.__pthread_mutex_s = type { i32, i32, i32, i32, i32, i16, i16, %struct.__pthread_internal_list }
%struct.__pthread_internal_list = type { ptr, ptr }
%struct.pmix_tma = type { ptr, ptr, ptr, ptr, ptr, ptr, ptr, ptr }
%struct.pmix_list_item_t = type { %struct.pmix_object_t, ptr, ptr, i32 }
%struct.prte_process_info_t = type { %struct.pmix_proc, %struct.pmix_proc, ptr, %struct.pmix_proc, i32, i32, i32, ptr, ptr, i32, i8, ptr, i16, ptr, ptr, i8, ptr, i8 }
%struct.pmix_proc = type { [256 x i8], i32 }
%struct.pmix_output_desc_t = type { i8, i8, i32, i8, i32, ptr, ptr, i32, ptr, i32, i8, i8, i8, i8, ptr, i32, i32 }
%struct.prte_rml_base_t = type { i32, i32, i32, i32, %struct.pmix_list_t, %struct.pmix_list_t, i32, %struct.pmix_list_t, i32, i8 }

@prte_process_info = external global %struct.prte_process_info_t, align 8
@.str.3 = private unnamed_addr constant [37 x i8] c"PRTE ERROR: %s in file %s at line %d\00", align 1
@.str.4 = private unnamed_addr constant [26 x i8] c"base/ess_base_std_prted.c\00", align 1
@pmix_output_info = external global [0 x %struct.pmix_output_desc_t], align 8
@stderr = external global ptr, align 8
@.str.36 = private unnamed_addr constant [37 x i8] c"PMIX ERROR: %s in file %s at line %d\00", align 1
@prte_execute_quiet = external global i8, align 1
@.str.48 = private unnamed_addr constant [35 x i8] c"PRTE: Forwarding signal %d to job\0A\00", align 1
@prte_nspace_wildcard = external global [256 x i8], align 16
@prte_rml_base = external global %struct.prte_rml_base_t, align 8
@.str.49 = private unnamed_addr constant [26 x i8] c"RML-SEND(%s:%d): %s:%s:%d\00", align 1
@__func__.signal_forward_callback = private unnamed_addr constant [24 x i8] c"signal_forward_callback\00", align 1

; Function Attrs: nounwind uwtable
define internal void @signal_forward_callback(i32 noundef %0, i16 noundef signext %1, ptr noundef %2) #0 {
  %4 = alloca i32, align 4
  %5 = alloca i16, align 2
  %6 = alloca ptr, align 8
  %7 = alloca ptr, align 8
  %8 = alloca i32, align 4
  %9 = alloca i32, align 4
  %10 = alloca ptr, align 8
  %11 = alloca i8, align 1
  %12 = alloca i32, align 4
  store i32 %0, ptr %4, align 4, !tbaa !3
  store i16 %1, ptr %5, align 2, !tbaa !98
  store ptr %2, ptr %6, align 8, !tbaa !10
  call void @llvm.lifetime.start.p0(i64 8, ptr %7) #12
  %13 = load ptr, ptr %6, align 8, !tbaa !10
  store ptr %13, ptr %7, align 8, !tbaa !13
  call void @llvm.lifetime.start.p0(i64 4, ptr %8) #12
  call void @llvm.lifetime.start.p0(i64 4, ptr %9) #12
  call void @llvm.lifetime.start.p0(i64 8, ptr %10) #12
  call void @llvm.lifetime.start.p0(i64 1, ptr %11) #12
  store i8 3, ptr %11, align 1, !tbaa !110
  %14 = load ptr, ptr %7, align 8, !tbaa !13
  %15 = call i32 @event_get_fd(ptr noundef %14)
  store i32 %15, ptr %8, align 4, !tbaa !3
  %16 = load i8, ptr @prte_execute_quiet, align 1, !tbaa !11, !range !78, !noundef !79
  %17 = trunc i8 %16 to i1
  br i1 %17, label %22, label %18

18:                                               ; preds = %3
  %19 = load ptr, ptr @stderr, align 8, !tbaa !89
  %20 = load i32, ptr %8, align 4, !tbaa !3
  %21 = call i32 (ptr, ptr, ...) @fprintf(ptr noundef %19, ptr noundef @.str.48, i32 noundef %20) #12
  br label %22

22:                                               ; preds = %18, %3
  %23 = call ptr @PMIx_Data_buffer_create()
  store ptr %23, ptr %10, align 8, !tbaa !111
  %24 = load ptr, ptr %10, align 8, !tbaa !111
  %25 = call i32 @PMIx_Data_pack(ptr noundef @prte_process_info, ptr noundef %24, ptr noundef %11, i32 noundef 1, i16 noundef zeroext 12)
  store i32 %25, ptr %9, align 4, !tbaa !3
  %26 = load i32, ptr %9, align 4, !tbaa !3
  %27 = icmp ne i32 0, %26
  br i1 %27, label %28, label %42

28:                                               ; preds = %22
  br label %29

29:                                               ; preds = %28
  %30 = load i32, ptr %9, align 4, !tbaa !3
  %31 = icmp ne i32 -2, %30
  br i1 %31, label %32, label %35

32:                                               ; preds = %29
  %33 = load i32, ptr %9, align 4, !tbaa !3
  %34 = call ptr @PMIx_Error_string(i32 noundef %33)
  call void (i32, ptr, ...) @pmix_output(i32 noundef 0, ptr noundef @.str.36, ptr noundef %34, ptr noundef @.str.4, i32 noundef 535)
  br label %35

35:                                               ; preds = %32, %29
  br label %36

36:                                               ; preds = %35
  br label %37

37:                                               ; preds = %36
  br label %38

38:                                               ; preds = %37
  %39 = load ptr, ptr %10, align 8, !tbaa !111
  call void @PMIx_Data_buffer_release(ptr noundef %39)
  store ptr null, ptr %10, align 8, !tbaa !111
  br label %40

40:                                               ; preds = %38
  br label %41

41:                                               ; preds = %40
  store i32 1, ptr %12, align 4
  br label %121

42:                                               ; preds = %22
  %43 = load ptr, ptr %10, align 8, !tbaa !111
  %44 = call i32 @PMIx_Data_pack(ptr noundef @prte_process_info, ptr noundef %43, ptr noundef @prte_nspace_wildcard, i32 noundef 1, i16 noundef zeroext 60)
  store i32 %44, ptr %9, align 4, !tbaa !3
  %45 = load i32, ptr %9, align 4, !tbaa !3
  %46 = icmp ne i32 0, %45
  br i1 %46, label %47, label %61

47:                                               ; preds = %42
  br label %48

48:                                               ; preds = %47
  %49 = load i32, ptr %9, align 4, !tbaa !3
  %50 = icmp ne i32 -2, %49
  br i1 %50, label %51, label %54

51:                                               ; preds = %48
  %52 = load i32, ptr %9, align 4, !tbaa !3
  %53 = call ptr @PMIx_Error_string(i32 noundef %52)
  call void (i32, ptr, ...) @pmix_output(i32 noundef 0, ptr noundef @.str.36, ptr noundef %53, ptr noundef @.str.4, i32 noundef 543)
  br label %54

54:                                               ; preds = %51, %48
  br label %55

55:                                               ; preds = %54
  br label %56

56:                                               ; preds = %55
  br label %57

57:                                               ; preds = %56
  %58 = load ptr, ptr %10, align 8, !tbaa !111
  call void @PMIx_Data_buffer_release(ptr noundef %58)
  store ptr null, ptr %10, align 8, !tbaa !111
  br label %59

59:                                               ; preds = %57
  br label %60

60:                                               ; preds = %59
  store i32 1, ptr %12, align 4
  br label %121

61:                                               ; preds = %42
  %62 = load ptr, ptr %10, align 8, !tbaa !111
  %63 = call i32 @PMIx_Data_pack(ptr noundef @prte_process_info, ptr noundef %62, ptr noundef @prte_nspace_wildcard, i32 noundef 1, i16 noundef zeroext 9)
  store i32 %63, ptr %9, align 4, !tbaa !3
  %64 = load i32, ptr %9, align 4, !tbaa !3
  %65 = icmp ne i32 0, %64
  br i1 %65, label %66, label %80

66:                                               ; preds = %61
  br label %67

67:                                               ; preds = %66
  %68 = load i32, ptr %9, align 4, !tbaa !3
  %69 = icmp ne i32 -2, %68
  br i1 %69, label %70, label %73

70:                                               ; preds = %67
  %71 = load i32, ptr %9, align 4, !tbaa !3
  %72 = call ptr @PMIx_Error_string(i32 noundef %71)
  call void (i32, ptr, ...) @pmix_output(i32 noundef 0, ptr noundef @.str.36, ptr noundef %72, ptr noundef @.str.4, i32 noundef 551)
  br label %73

73:                                               ; preds = %70, %67
  br label %74

74:                                               ; preds = %73
  br label %75

75:                                               ; preds = %74
  br label %76

76:                                               ; preds = %75
  %77 = load ptr, ptr %10, align 8, !tbaa !111
  call void @PMIx_Data_buffer_release(ptr noundef %77)
  store ptr null, ptr %10, align 8, !tbaa !111
  br label %78

78:                                               ; preds = %76
  br label %79

79:                                               ; preds = %78
  store i32 1, ptr %12, align 4
  br label %121

80:                                               ; preds = %61
  br label %81

81:                                               ; preds = %80
  %82 = load i32, ptr @prte_rml_base, align 8, !tbaa !113
  %83 = icmp sge i32 %82, 0
  br i1 %83, label %84, label %98

84:                                               ; preds = %81
  %85 = load i32, ptr @prte_rml_base, align 8, !tbaa !113
  %86 = icmp slt i32 %85, 64
  br i1 %86, label %87, label %98

87:                                               ; preds = %84
  %88 = load i32, ptr @prte_rml_base, align 8, !tbaa !113
  %89 = sext i32 %88 to i64
  %90 = getelementptr inbounds [0 x %struct.pmix_output_desc_t], ptr @pmix_output_info, i64 0, i64 %89
  %91 = getelementptr inbounds nuw %struct.pmix_output_desc_t, ptr %90, i32 0, i32 2
  %92 = load i32, ptr %91, align 4, !tbaa !73
  %93 = icmp sge i32 %92, 2
  br i1 %93, label %94, label %98

94:                                               ; preds = %87
  %95 = load i32, ptr @prte_rml_base, align 8, !tbaa !113
  %96 = load i32, ptr getelementptr inbounds nuw (%struct.pmix_proc, ptr @prte_process_info, i32 0, i32 1), align 8, !tbaa !59
  %97 = call ptr @pmix_util_print_rank(i32 noundef %96)
  call void (i32, ptr, ...) @pmix_output(i32 noundef %95, ptr noundef @.str.49, ptr noundef %97, i32 noundef 1, ptr noundef @.str.4, ptr noundef @__func__.signal_forward_callback, i32 noundef 557)
  br label %98

98:                                               ; preds = %94, %87, %84, %81
  %99 = load i32, ptr getelementptr inbounds nuw (%struct.pmix_proc, ptr @prte_process_info, i32 0, i32 1), align 8, !tbaa !59
  %100 = load ptr, ptr %10, align 8, !tbaa !111
  %101 = call i32 @prte_rml_send_buffer_nb(i32 noundef %99, ptr noundef %100, i32 noundef 1)
  store i32 %101, ptr %9, align 4, !tbaa !3
  br label %102

102:                                              ; preds = %98
  br label %103

103:                                              ; preds = %102
  %104 = load i32, ptr %9, align 4, !tbaa !3
  %105 = icmp ne i32 0, %104
  br i1 %105, label %106, label %120

106:                                              ; preds = %103
  br label %107

107:                                              ; preds = %106
  %108 = load i32, ptr %9, align 4, !tbaa !3
  %109 = icmp ne i32 -43, %108
  br i1 %109, label %110, label %113

110:                                              ; preds = %107
  %111 = load i32, ptr %9, align 4, !tbaa !3
  %112 = call ptr @prte_strerror(i32 noundef %111)
  call void (i32, ptr, ...) @pmix_output(i32 noundef 0, ptr noundef @.str.3, ptr noundef %112, ptr noundef @.str.4, i32 noundef 559)
  br label %113

113:                                              ; preds = %110, %107
  br label %114

114:                                              ; preds = %113
  br label %115

115:                                              ; preds = %114
  br label %116

116:                                              ; preds = %115
  %117 = load ptr, ptr %10, align 8, !tbaa !111
  call void @PMIx_Data_buffer_release(ptr noundef %117)
  store ptr null, ptr %10, align 8, !tbaa !111
  br label %118

118:                                              ; preds = %116
  br label %119

119:                                              ; preds = %118
  br label %120

120:                                              ; preds = %119, %103
  store i32 0, ptr %12, align 4
  br label %121

121:                                              ; preds = %120, %79, %60, %41
  call void @llvm.lifetime.end.p0(i64 1, ptr %11) #12
  call void @llvm.lifetime.end.p0(i64 8, ptr %10) #12
  call void @llvm.lifetime.end.p0(i64 4, ptr %9) #12
  call void @llvm.lifetime.end.p0(i64 4, ptr %8) #12
  call void @llvm.lifetime.end.p0(i64 8, ptr %7) #12
  %122 = load i32, ptr %12, align 4
  switch i32 %122, label %124 [
    i32 0, label %123
    i32 1, label %123
  ]

123:                                              ; preds = %121, %121
  ret void

124:                                              ; preds = %121
  unreachable
}