; Function Attrs: nounwind uwtable
define internal void @signal_forward_callback(i32 %0, i16 signext %1, ptr noundef %2) #0 {
  %4 = alloca i8, align 1
  call void @llvm.lifetime.start.p0(i64 1, ptr nonnull %4) #18
  store i8 3, ptr %4, align 1, !tbaa !104
  %5 = tail call i32 @event_get_fd(ptr noundef %2) #18
  %6 = load i8, ptr @prte_execute_quiet, align 1, !tbaa !74, !range !75, !noundef !76
  %7 = trunc nuw i8 %6 to i1
  br i1 %7, label %11, label %8

8:                                                ; preds = %3
  %9 = load ptr, ptr @stderr, align 8, !tbaa !86
  %10 = tail call i32 (ptr, ptr, ...) @fprintf(ptr noundef %9, ptr noundef nonnull @.str.48, i32 noundef %5) #21
  br label %11

11:                                               ; preds = %8, %3
  %12 = tail call ptr @PMIx_Data_buffer_create() #18
  %13 = call i32 @PMIx_Data_pack(ptr noundef nonnull @prte_process_info, ptr noundef %12, ptr noundef nonnull %4, i32 noundef 1, i16 noundef zeroext 12) #18
  switch i32 %13, label %14 [
    i32 0, label %16
    i32 -2, label %.sink.split
  ]

14:                                               ; preds = %11
  %15 = call ptr @PMIx_Error_string(i32 noundef %13) #18
  call void (i32, ptr, ...) @pmix_output(i32 noundef 0, ptr noundef nonnull @.str.36, ptr noundef %15, ptr noundef nonnull @.str.4, i32 noundef 535) #18
  br label %.sink.split

16:                                               ; preds = %11
  %17 = call i32 @PMIx_Data_pack(ptr noundef nonnull @prte_process_info, ptr noundef %12, ptr noundef nonnull @prte_nspace_wildcard, i32 noundef 1, i16 noundef zeroext 60) #18
  switch i32 %17, label %18 [
    i32 0, label %20
    i32 -2, label %.sink.split
  ]

18:                                               ; preds = %16
  %19 = call ptr @PMIx_Error_string(i32 noundef %17) #18
  call void (i32, ptr, ...) @pmix_output(i32 noundef 0, ptr noundef nonnull @.str.36, ptr noundef %19, ptr noundef nonnull @.str.4, i32 noundef 543) #18
  br label %.sink.split

20:                                               ; preds = %16
  %21 = call i32 @PMIx_Data_pack(ptr noundef nonnull @prte_process_info, ptr noundef %12, ptr noundef nonnull @prte_nspace_wildcard, i32 noundef 1, i16 noundef zeroext 9) #18
  switch i32 %21, label %22 [
    i32 0, label %24
    i32 -2, label %.sink.split
  ]

22:                                               ; preds = %20
  %23 = call ptr @PMIx_Error_string(i32 noundef %21) #18
  call void (i32, ptr, ...) @pmix_output(i32 noundef 0, ptr noundef nonnull @.str.36, ptr noundef %23, ptr noundef nonnull @.str.4, i32 noundef 551) #18
  br label %.sink.split

24:                                               ; preds = %20
  %25 = load i32, ptr @prte_rml_base, align 8, !tbaa !105
  %or.cond = icmp ult i32 %25, 64
  br i1 %or.cond, label %26, label %34

26:                                               ; preds = %24
  %27 = zext nneg i32 %25 to i64
  %28 = getelementptr inbounds nuw [0 x %struct.pmix_output_desc_t], ptr @pmix_output_info, i64 0, i64 %27, i32 2
  %29 = load i32, ptr %28, align 4, !tbaa !69
  %30 = icmp sgt i32 %29, 1
  br i1 %30, label %31, label %34

31:                                               ; preds = %26
  %32 = load i32, ptr getelementptr inbounds nuw (i8, ptr @prte_process_info, i64 256), align 8, !tbaa !55
  %33 = call ptr @pmix_util_print_rank(i32 noundef %32) #18
  call void (i32, ptr, ...) @pmix_output(i32 noundef %25, ptr noundef nonnull @.str.49, ptr noundef %33, i32 noundef 1, ptr noundef nonnull @.str.4, ptr noundef nonnull @__func__.signal_forward_callback, i32 noundef 557) #18
  br label %34

34:                                               ; preds = %31, %26, %24
  %35 = load i32, ptr getelementptr inbounds nuw (i8, ptr @prte_process_info, i64 256), align 8, !tbaa !55
  %36 = call i32 @prte_rml_send_buffer_nb(i32 noundef %35, ptr noundef %12, i32 noundef 1) #18
  switch i32 %36, label %37 [
    i32 0, label %39
    i32 -43, label %.sink.split
  ]

37:                                               ; preds = %34
  %38 = call ptr @prte_strerror(i32 noundef %36) #18
  call void (i32, ptr, ...) @pmix_output(i32 noundef 0, ptr noundef nonnull @.str.3, ptr noundef %38, ptr noundef nonnull @.str.4, i32 noundef 559) #18
  br label %.sink.split

.sink.split:                                      ; preds = %37, %34, %22, %20, %18, %16, %14, %11
  call void @PMIx_Data_buffer_release(ptr noundef %12) #18
  br label %39

39:                                               ; preds = %.sink.split, %34
  call void @llvm.lifetime.end.p0(i64 1, ptr nonnull %4) #18
  ret void
}